	.file	"pizza.c"
	.text
	.globl	make_pizza
	.type	make_pizza, @function
make_pizza:
.LFB0:
	.cfi_startproc
	pushq	%rbp
	.cfi_def_cfa_offset 16
	.cfi_offset 6, -16
	movq	%rsp, %rbp
	.cfi_def_cfa_register 6
	movl	%edi, -20(%rbp)
	movl	%esi, -24(%rbp)
	movl	%edx, -28(%rbp)
	movl	%ecx, -32(%rbp)
	movl	%r8d, -36(%rbp)
	movl	%r9d, -40(%rbp)
	movl	$0, -4(%rbp)
	movl	-4(%rbp), %eax
	popq	%rbp
	.cfi_def_cfa 7, 8
	ret
	.cfi_endproc
.LFE0:
	.size	make_pizza, .-make_pizza
	.globl	make_dinner
	.type	make_dinner, @function
make_dinner:
.LFB1:
	.cfi_startproc
	pushq	%rbp
	.cfi_def_cfa_offset 16
	.cfi_offset 6, -16
	movq	%rsp, %rbp
	.cfi_def_cfa_register 6
	subq	$64, %rsp
	movl	%edi, -20(%rbp)
	movl	$0, -4(%rbp)
	movl	$9, 32(%rsp)
	movl	$8, 24(%rsp)
	movl	$7, 16(%rsp)
	movl	$6, 8(%rsp)
	movl	$5, (%rsp)
	movl	$4, %r9d
	movl	$3, %r8d
	movl	$2, %ecx
	movl	$1, %edx
	movl	$52, %esi
	movl	$51, %edi
	call	make_pizza
	movl	%eax, -4(%rbp)
	movl	-4(%rbp), %eax
	leave
	.cfi_def_cfa 7, 8
	ret
	.cfi_endproc
.LFE1:
	.size	make_dinner, .-make_dinner
	.globl	main
	.type	main, @function
main:
.LFB2:
	.cfi_startproc
	pushq	%rbp
	.cfi_def_cfa_offset 16
	.cfi_offset 6, -16
	movq	%rsp, %rbp
	.cfi_def_cfa_register 6
	subq	$16, %rsp
	movl	$0, -4(%rbp)
	movl	$50, %edi
	call	make_dinner
	movl	%eax, -4(%rbp)
	movl	-4(%rbp), %eax
	leave
	.cfi_def_cfa 7, 8
	ret
	.cfi_endproc
.LFE2:
	.size	main, .-main
	.ident	"GCC: (SUSE Linux) 4.8.5"
	.section	.note.GNU-stack,"",@progbits
